target datalayout = "e-m:e-p270:32:32-p271:32:32-p272:64:64-i64:64-i128:128-f80:128-n8:16:32:64-S128"
target triple = "x86_64-pc-linux-gnu"

%struct.stat = type { i64, i64, i64, i32, i32, i32, i32, i64, i64, i64, i64, %struct.timespec, %struct.timespec, %struct.timespec, [3 x i64] }
%struct.timespec = type { i64, i64 }

@.str.8 = private unnamed_addr constant [27 x i8] c"Can't create directory: %s\00", align 1

; Function Attrs: nounwind uwtable
define hidden zeroext i1 @SDL_SYS_CreateDirectory(ptr noundef %0) #0 {
  %2 = alloca i1, align 1
  %3 = alloca ptr, align 8
  %4 = alloca i32, align 4
  %5 = alloca i32, align 4
  %6 = alloca %struct.stat, align 8
  %7 = alloca i32, align 4
  store ptr %0, ptr %3, align 8
  call void @llvm.lifetime.start.p0(i64 4, ptr %4) #6
  %8 = load ptr, ptr %3, align 8
  %9 = call i32 @mkdir(ptr noundef %8, i32 noundef 504) #6
  store i32 %9, ptr %4, align 4
  %10 = load i32, ptr %4, align 4
  %11 = icmp slt i32 %10, 0
  br i1 %11, label %12, label %36

12:                                               ; preds = %1
  call void @llvm.lifetime.start.p0(i64 4, ptr %5) #6
  %13 = call ptr @__errno_location() #7
  %14 = load i32, ptr %13, align 4
  store i32 %14, ptr %5, align 4
  %15 = load i32, ptr %5, align 4
  %16 = icmp eq i32 %15, 17
  br i1 %16, label %17, label %31

17:                                               ; preds = %12
  call void @llvm.lifetime.start.p0(i64 144, ptr %6) #6
  %18 = load ptr, ptr %3, align 8
  %19 = call i32 @stat(ptr noundef %18, ptr noundef %6) #6
  %20 = icmp eq i32 %19, 0
  br i1 %20, label %21, label %27

21:                                               ; preds = %17
  %22 = getelementptr inbounds nuw %struct.stat, ptr %6, i32 0, i32 3
  %23 = load i32, ptr %22, align 8
  %24 = and i32 %23, 61440
  %25 = icmp eq i32 %24, 16384
  br i1 %25, label %26, label %27

26:                                               ; preds = %21
  store i1 true, ptr %2, align 1
  store i32 1, ptr %7, align 4
  br label %28

27:                                               ; preds = %21, %17
  store i32 0, ptr %7, align 4
  br label %28

28:                                               ; preds = %27, %26
  call void @llvm.lifetime.end.p0(i64 144, ptr %6) #6
  %29 = load i32, ptr %7, align 4
  switch i32 %29, label %35 [
    i32 0, label %30
  ]

30:                                               ; preds = %28
  br label %31

31:                                               ; preds = %30, %12
  %32 = load i32, ptr %5, align 4
  %33 = call ptr @strerror(i32 noundef %32) #6
  %34 = call zeroext i1 (ptr, ...) @SDL_SetError_REAL(ptr noundef @.str.8, ptr noundef %33)
  store i1 %34, ptr %2, align 1
  store i32 1, ptr %7, align 4
  br label %35

35:                                               ; preds = %31, %28
  call void @llvm.lifetime.end.p0(i64 4, ptr %5) #6
  br label %37

36:                                               ; preds = %1
  store i1 true, ptr %2, align 1
  store i32 1, ptr %7, align 4
  br label %37

37:                                               ; preds = %36, %35
  call void @llvm.lifetime.end.p0(i64 4, ptr %4) #6
  %38 = load i1, ptr %2, align 1
  ret i1 %38
}