; Function Attrs: nounwind uwtable
define hidden zeroext i1 @SDL_SYS_CreateDirectory(ptr noundef readonly captures(none) %0) local_unnamed_addr #0 {
  %2 = alloca %struct.stat, align 8
  %3 = tail call i32 @mkdir(ptr noundef %0, i32 noundef 504) #7
  %4 = icmp slt i32 %3, 0
  br i1 %4, label %5, label %21

5:                                                ; preds = %1
  %6 = tail call ptr @__errno_location() #8
  %7 = load i32, ptr %6, align 4
  %8 = icmp eq i32 %7, 17
  br i1 %8, label %9, label %18

9:                                                ; preds = %5
  call void @llvm.lifetime.start.p0(i64 144, ptr nonnull %2) #7
  %10 = call i32 @stat(ptr noundef %0, ptr noundef nonnull %2) #7
  %11 = icmp eq i32 %10, 0
  br i1 %11, label %12, label %.critedge

12:                                               ; preds = %9
  %13 = getelementptr inbounds nuw i8, ptr %2, i64 24
  %14 = load i32, ptr %13, align 8
  %15 = and i32 %14, 61440
  %16 = icmp eq i32 %15, 16384
  br i1 %16, label %17, label %.critedge

.critedge:                                        ; preds = %12, %9
  call void @llvm.lifetime.end.p0(i64 144, ptr nonnull %2) #7
  br label %18

17:                                               ; preds = %12
  call void @llvm.lifetime.end.p0(i64 144, ptr nonnull %2) #7
  br label %21

18:                                               ; preds = %.critedge, %5
  %19 = tail call ptr @strerror(i32 noundef %7) #7
  %20 = tail call zeroext i1 (ptr, ...) @SDL_SetError_REAL(ptr noundef nonnull @.str.8, ptr noundef %19) #7
  br label %21

21:                                               ; preds = %1, %18, %17
  %.2 = phi i1 [ %20, %18 ], [ true, %17 ], [ true, %1 ]
  ret i1 %.2
}